target datalayout = "e-m:e-p270:32:32-p271:32:32-p272:64:64-i64:64-i128:128-f80:128-n8:16:32:64-S128"
target triple = "x86_64-pc-linux-gnu"

%struct.rb_data_type_struct = type { ptr, %struct.anon, ptr, ptr, i64 }
%struct.anon = type { ptr, ptr, ptr, ptr, [1 x ptr] }

@ossl_x509_type = internal constant %struct.rb_data_type_struct { ptr @.str.34, %struct.anon { ptr null, ptr @ossl_x509_free, ptr null, ptr null, [1 x ptr] zeroinitializer }, ptr null, ptr null, i64 33 }, align 8
@rb_eRuntimeError = external global i64, align 8
@.str = private unnamed_addr constant [25 x i8] c"CERT wasn't initialized!\00", align 1

; Function Attrs: nounwind sspstrong uwtable
define internal i64 @ossl_x509_get_extensions(i64 noundef %0) #0 {
  %2 = alloca i64, align 8
  %3 = alloca ptr, align 8
  %4 = alloca i32, align 4
  %5 = alloca i32, align 4
  %6 = alloca ptr, align 8
  %7 = alloca i64, align 8
  store i64 %0, ptr %2, align 8, !tbaa !11
  call void @llvm.lifetime.start.p0(i64 8, ptr %3) #15
  call void @llvm.lifetime.start.p0(i64 4, ptr %4) #15
  call void @llvm.lifetime.start.p0(i64 4, ptr %5) #15
  call void @llvm.lifetime.start.p0(i64 8, ptr %6) #15
  call void @llvm.lifetime.start.p0(i64 8, ptr %7) #15
  br label %8

8:                                                ; preds = %1
  %9 = load i64, ptr %2, align 8, !tbaa !11
  %10 = call ptr @rb_check_typeddata(i64 noundef %9, ptr noundef @ossl_x509_type)
  store ptr %10, ptr %3, align 8, !tbaa !6
  %11 = load ptr, ptr %3, align 8, !tbaa !6
  %12 = icmp ne ptr %11, null
  br i1 %12, label %15, label %13

13:                                               ; preds = %8
  %14 = load i64, ptr @rb_eRuntimeError, align 8, !tbaa !11
  call void (i64, ptr, ...) @ossl_raise(i64 noundef %14, ptr noundef @.str) #16
  unreachable

15:                                               ; preds = %8
  br label %16

16:                                               ; preds = %15
  br label %17

17:                                               ; preds = %16
  %18 = load ptr, ptr %3, align 8, !tbaa !6
  %19 = call i32 @X509_get_ext_count(ptr noundef %18)
  store i32 %19, ptr %4, align 4, !tbaa !19
  %20 = load i32, ptr %4, align 4, !tbaa !19
  %21 = sext i32 %20 to i64
  %22 = call i64 @rb_ary_new_capa(i64 noundef %21)
  store i64 %22, ptr %7, align 8, !tbaa !11
  store i32 0, ptr %5, align 4, !tbaa !19
  br label %23

23:                                               ; preds = %35, %17
  %24 = load i32, ptr %5, align 4, !tbaa !19
  %25 = load i32, ptr %4, align 4, !tbaa !19
  %26 = icmp slt i32 %24, %25
  br i1 %26, label %27, label %38

27:                                               ; preds = %23
  %28 = load ptr, ptr %3, align 8, !tbaa !6
  %29 = load i32, ptr %5, align 4, !tbaa !19
  %30 = call ptr @X509_get_ext(ptr noundef %28, i32 noundef %29)
  store ptr %30, ptr %6, align 8, !tbaa !37
  %31 = load i64, ptr %7, align 8, !tbaa !11
  %32 = load ptr, ptr %6, align 8, !tbaa !37
  %33 = call i64 @ossl_x509ext_new(ptr noundef %32)
  %34 = call i64 @rb_ary_push(i64 noundef %31, i64 noundef %33)
  br label %35

35:                                               ; preds = %27
  %36 = load i32, ptr %5, align 4, !tbaa !19
  %37 = add nsw i32 %36, 1
  store i32 %37, ptr %5, align 4, !tbaa !19
  br label %23, !llvm.loop !39

38:                                               ; preds = %23
  %39 = load i64, ptr %7, align 8, !tbaa !11
  call void @llvm.lifetime.end.p0(i64 8, ptr %7) #15
  call void @llvm.lifetime.end.p0(i64 8, ptr %6) #15
  call void @llvm.lifetime.end.p0(i64 4, ptr %5) #15
  call void @llvm.lifetime.end.p0(i64 4, ptr %4) #15
  call void @llvm.lifetime.end.p0(i64 8, ptr %3) #15
  ret i64 %39
}