; Function Attrs: nounwind sspstrong uwtable
define internal i64 @ossl_x509_get_extensions(i64 noundef %0) #0 {
  %2 = tail call ptr @rb_check_typeddata(i64 noundef %0, ptr noundef nonnull @ossl_x509_type) #5
  %.not = icmp eq ptr %2, null
  br i1 %.not, label %3, label %5

3:                                                ; preds = %1
  %4 = load i64, ptr @rb_eRuntimeError, align 8, !tbaa !6
  tail call void (i64, ptr, ...) @ossl_raise(i64 noundef %4, ptr noundef nonnull @.str) #6
  unreachable

5:                                                ; preds = %1
  %6 = tail call i32 @X509_get_ext_count(ptr noundef nonnull %2) #5
  %7 = sext i32 %6 to i64
  %8 = tail call i64 @rb_ary_new_capa(i64 noundef %7) #5
  %9 = icmp sgt i32 %6, 0
  br i1 %9, label %.lr.ph, label %._crit_edge

.lr.ph:                                           ; preds = %5, %.lr.ph
  %.012 = phi i32 [ %13, %.lr.ph ], [ 0, %5 ]
  %10 = tail call ptr @X509_get_ext(ptr noundef nonnull %2, i32 noundef %.012) #5
  %11 = tail call i64 @ossl_x509ext_new(ptr noundef %10) #5
  %12 = tail call i64 @rb_ary_push(i64 noundef %8, i64 noundef %11) #5
  %13 = add nuw nsw i32 %.012, 1
  %exitcond.not = icmp eq i32 %13, %6
  br i1 %exitcond.not, label %._crit_edge, label %.lr.ph, !llvm.loop !32

._crit_edge:                                      ; preds = %.lr.ph, %5
  ret i64 %8
}